(dp1
V124.232.148.7:3128
p2
(dp3
S'status'
p4
S'ok'
p5
sS'used'
p6
I01
sS'type'
p7
Vhttps
p8
ssV119.23.161.182:3128
p9
(dp10
g4
g5
sg6
I01
sg7
Vhttps
p11
ssV58.251.156.121:8080
p12
(dp13
g4
g5
sg6
I01
sg7
Vhttps
p14
ssV119.90.63.3:3128
p15
(dp16
g4
g5
sg6
I01
sg7
Vhttps
p17
ssV113.124.95.27:808
p18
(dp19
g4
g5
sg6
I01
sg7
Vhttps
p20
ssV119.90.248.245:9999
p21
(dp22
g4
g5
sg6
I01
sg7
Vhttps
p23
ssV118.190.176.148:3128
p24
(dp25
g4
g5
sg6
I01
sg7
Vhttps
p26
ssV120.24.208.140:3128
p27
(dp28
S'status'
p29
S'ok'
p30
sS'used'
p31
I01
sS'type'
p32
Vhttps
p33
ssV113.128.91.93:48888
p34
(dp35
g4
g5
sg6
I01
sg7
Vhttps
p36
ssV39.88.13.3:53281
p37
(dp38
g4
g5
sg6
I01
sg7
Vhttps
p39
ssV183.66.64.120:3128
p40
(dp41
g4
g5
sg6
I01
sg7
Vhttps
p42
ssV202.96.142.2:3128
p43
(dp44
g4
g5
sg6
I01
sg7
Vhttps
p45
ssV123.152.36.215:4328
p46
(dp47
g4
g5
sg6
I01
sg7
Vhttps
p48
ssV183.18.164.158:3128
p49
(dp50
S'status'
p51
S'ok'
p52
sS'used'
p53
I01
sS'type'
p54
Vhttps
p55
ssV221.233.62.43:808
p56
(dp57
g51
g52
sg53
I01
sg54
Vhttps
p58
ssV113.128.91.212:48888
p59
(dp60
S'status'
p61
S'ok'
p62
sS'used'
p63
I01
sS'type'
p64
Vhttps
p65
ssV120.55.38.20:3128
p66
(dp67
g4
g5
sg6
I01
sg7
Vhttps
p68
ssV223.240.47.74:8123
p69
(dp70
g4
g5
sg6
I01
sg7
Vhttps
p71
ssV116.30.195.239:9797
p72
(dp73
g4
g5
sg6
I01
sg7
Vhttps
p74
ssV113.122.1.203:808
p75
(dp76
g4
g5
sg6
I01
sg7
Vhttps
p77
ssV121.12.42.140:61234
p78
(dp79
g4
g5
sg6
I01
sg7
Vhttps
p80
ssV118.81.69.210:9797
p81
(dp82
g4
g5
sg6
I01
sg7
Vhttps
p83
ssV36.251.248.76:80
p84
(dp85
S'status'
p86
S'ok'
p87
sS'used'
p88
I01
sS'type'
p89
Vhttps
p90
ssV219.135.164.245:3128
p91
(dp92
g4
g5
sg6
I01
sg7
Vhttps
p93
ssV118.31.103.7:3128
p94
(dp95
g4
g5
sg6
I01
sg7
Vhttps
p96
ssV116.196.90.182:808
p97
(dp98
g4
g5
sg6
I01
sg7
Vhttps
p99
ssV118.81.70.221:9797
p100
(dp101
g4
g5
sg6
I01
sg7
Vhttps
p102
ssV101.37.203.65:80
p103
(dp104
g4
g5
sg6
I01
sg7
Vhttps
p105
ssV123.152.36.110:4328
p106
(dp107
g4
g5
sg6
I01
sg7
Vhttps
p108
ssV59.56.46.119:808
p109
(dp110
g4
g5
sg6
I01
sg7
Vhttps
p111
ssV220.248.207.105:53281
p112
(dp113
g4
g5
sg6
I01
sg7
Vhttps
p114
ssV120.27.27.50:3128
p115
(dp116
g4
g5
sg6
I01
sg7
Vhttps
p117
ssV119.136.197.234:9797
p118
(dp119
g4
g5
sg6
I01
sg7
Vhttps
p120
ssV61.160.208.222:8080
p121
(dp122
g29
g30
sg31
I01
sg32
Vhttps
p123
ss.