(dp1
V113.195.163.186:48888
p2
(dp3
S'status'
p4
S'ok'
p5
sS'used'
p6
I00
sS'type'
p7
Vhttps
p8
ssV113.128.90.253:48888
p9
(dp10
S'status'
p11
S'ok'
p12
sS'used'
p13
I00
sS'type'
p14
Vhttps
p15
ssV27.46.38.85:9797
p16
(dp17
g4
g5
sg6
I00
sg7
Vhttps
p18
ssV180.173.48.187:53281
p19
(dp20
S'status'
p21
S'ok'
p22
sS'used'
p23
I00
sS'type'
p24
Vhttps
p25
ssV222.185.133.183:808
p26
(dp27
g11
g12
sg13
I00
sg14
Vhttps
p28
ssV113.88.67.116:9797
p29
(dp30
g21
g22
sg23
I00
sg24
Vhttps
p31
ssV114.104.198.197:808
p32
(dp33
g21
g22
sg23
I00
sg24
Vhttps
p34
ssV113.128.90.121:48888
p35
(dp36
g11
g12
sg13
I00
sg14
Vhttps
p37
ssV121.32.89.106:808
p38
(dp39
g21
g22
sg23
I01
sg24
Vhttps
p40
ssV113.128.90.165:48888
p41
(dp42
g11
g12
sg13
I00
sg14
Vhttps
p43
ssV175.30.124.125:8123
p44
(dp45
g4
g5
sg6
I00
sg7
Vhttps
p46
ssV49.88.217.205:808
p47
(dp48
g21
g22
sg23
I00
sg24
Vhttps
p49
ssV113.128.90.144:48888
p50
(dp51
g4
g5
sg6
I00
sg7
Vhttps
p52
ssV116.30.195.239:9797
p53
(dp54
g21
g22
sg23
I00
sg24
Vhttps
p55
ssV115.236.92.74:8088
p56
(dp57
g21
g22
sg23
I00
sg24
Vhttps
p58
ssV36.251.248.76:80
p59
(dp60
g21
g22
sg23
I00
sg24
Vhttps
p61
ssV113.128.91.58:48888
p62
(dp63
g11
g12
sg13
I00
sg14
Vhttps
p64
ssV116.196.90.182:808
p65
(dp66
g21
g22
sg23
I00
sg24
Vhttps
p67
ssV113.128.91.93:48888
p68
(dp69
g21
g22
sg23
I00
sg24
Vhttps
p70
ssV59.56.46.119:808
p71
(dp72
g21
g22
sg23
I00
sg24
Vhttps
p73
ssV115.200.170.201:8123
p74
(dp75
g21
g22
sg23
I00
sg24
Vhttps
p76
ssV222.88.144.119:53281
p77
(dp78
g21
g22
sg23
I00
sg24
Vhttps
p79
ssV49.75.0.227:808
p80
(dp81
g21
g22
sg23
I00
sg24
Vhttps
p82
ss.