(dp1
V123.138.89.133:9999
p2
(dp3
S'status'
p4
S'ok'
p5
sS'used'
p6
I01
sS'type'
p7
Vhttps
p8
ssV119.23.161.182:3128
p9
(dp10
S'status'
p11
g5
sS'used'
p12
I01
sS'type'
p13
Vhttps
p14
ssV58.251.156.121:8080
p15
(dp16
g11
g5
sg12
I01
sg13
Vhttps
p17
ssV112.86.75.176:53281
p18
(dp19
g4
g5
sg6
I01
sg7
Vhttps
p20
ssV222.185.133.183:808
p21
(dp22
S'status'
p23
S'ok'
p24
sS'used'
p25
I01
sS'type'
p26
Vhttps
p27
ssV39.88.13.3:53281
p28
(dp29
g23
g24
sg25
I01
sg26
Vhttps
p30
ssV202.96.142.2:3128
p31
(dp32
g23
g24
sg25
I01
sg26
Vhttps
p33
ssV221.221.218.208:9999
p34
(dp35
S'status'
p36
g5
sS'used'
p37
I01
sS'type'
p38
Vhttps
p39
ssV183.15.235.105:9797
p40
(dp41
g4
g5
sg6
I01
sg7
Vhttps
p42
ssV118.248.141.157:8080
p43
(dp44
g23
g24
sg25
I01
sg26
Vhttps
p45
ssV125.33.252.252:9000
p46
(dp47
g23
g24
sg25
I01
sg26
Vhttps
p48
ssV120.55.38.20:3128
p49
(dp50
S'status'
p51
g5
sS'used'
p52
I01
sS'type'
p53
Vhttps
p54
ssV117.78.35.194:3128
p55
(dp56
g23
g24
sg25
I01
sg26
Vhttps
p57
ssV118.31.103.7:3128
p58
(dp59
g51
g5
sg52
I01
sg53
Vhttps
p60
ssV36.251.248.76:80
p61
(dp62
g36
g5
sg37
I01
sg38
Vhttps
p63
ssV219.135.164.245:3128
p64
(dp65
g4
g5
sg6
I01
sg7
Vhttps
p66
ssV113.110.229.94:808
p67
(dp68
g4
g5
sg6
I01
sg7
Vhttps
p69
ssV175.4.31.68:8080
p70
(dp71
g4
g5
sg6
I01
sg7
Vhttps
p72
ssV101.37.203.65:80
p73
(dp74
g51
g5
sg52
I01
sg53
Vhttps
p75
ssV124.152.32.140:53281
p76
(dp77
g4
g5
sg6
I01
sg7
Vhttps
p78
ssV59.59.147.119:53281
p79
(dp80
g23
g24
sg25
I01
sg26
Vhttps
p81
ssV120.27.27.50:3128
p82
(dp83
g4
g5
sg6
I01
sg7
Vhttps
p84
ssV61.160.208.222:8080
p85
(dp86
g4
g5
sg6
I01
sg7
Vhttps
p87
ss.