(dp1
V124.232.148.7:3128
p2
(dp3
S'status'
p4
S'ok'
p5
sS'used'
p6
I01
sS'type'
p7
Vhttps
p8
ssV183.136.218.40:808
p9
(dp10
S'status'
p11
S'ok'
p12
sS'used'
p13
I00
sS'type'
p14
Vhttps
p15
ssV119.23.161.182:3128
p16
(dp17
g4
g5
sg6
I00
sg7
Vhttps
p18
ssV58.251.156.121:8080
p19
(dp20
g4
g5
sg6
I00
sg7
Vhttps
p21
ssV122.72.32.83:80
p22
(dp23
g11
g12
sg13
I00
sg14
Vhttps
p24
ssV113.128.90.232:48888
p25
(dp26
g11
g12
sg13
I00
sg14
Vhttps
p27
ssV113.128.91.93:48888
p28
(dp29
g4
g5
sg6
I00
sg7
Vhttps
p30
ssV114.245.134.163:9000
p31
(dp32
g11
g12
sg13
I00
sg14
Vhttps
p33
ssV175.167.21.120:8080
p34
(dp35
g11
g12
sg13
I00
sg14
Vhttps
p36
ssV14.23.160.245:53281
p37
(dp38
g11
g12
sg13
I00
sg14
Vhttps
p39
ssV113.121.188.250:808
p40
(dp41
g11
g12
sg13
I00
sg14
Vhttps
p42
ssV101.37.203.65:80
p43
(dp44
g4
g5
sg6
I00
sg7
Vhttps
p45
ssV123.55.91.127:808
p46
(dp47
g11
g12
sg13
I00
sg14
Vhttps
p48
ssV116.231.148.1:63000
p49
(dp50
S'status'
p51
S'ok'
p52
sS'used'
p53
I00
sS'type'
p54
Vhttps
p55
ssV36.251.248.76:80
p56
(dp57
S'status'
p58
S'ok'
p59
sS'used'
p60
I00
sS'type'
p61
Vhttps
p62
ssV183.31.225.186:9797
p63
(dp64
g11
g12
sg13
I00
sg14
Vhttps
p65
ssV119.90.63.3:3128
p66
(dp67
g4
g5
sg6
I00
sg7
Vhttps
p68
ssV116.196.90.182:808
p69
(dp70
g4
g5
sg6
I00
sg7
Vhttps
p71
ssV123.152.36.110:4328
p72
(dp73
g4
g5
sg6
I00
sg7
Vhttps
p74
ssV115.218.236.41:808
p75
(dp76
g11
g12
sg13
I00
sg14
Vhttps
p77
ssV121.13.85.35:9797
p78
(dp79
g11
g12
sg13
I00
sg14
Vhttps
p80
ssV61.160.208.222:8080
p81
(dp82
S'status'
p83
S'ok'
p84
sS'used'
p85
I00
sS'type'
p86
Vhttps
p87
ssV113.128.90.104:48888
p88
(dp89
g11
g12
sg13
I00
sg14
Vhttps
p90
ssV113.128.91.185:48888
p91
(dp92
g51
g52
sg53
I00
sg54
Vhttps
p93
ssV120.24.208.140:3128
p94
(dp95
g83
g84
sg85
I00
sg86
Vhttps
p96
ssV39.88.13.3:53281
p97
(dp98
g4
g5
sg6
I00
sg7
Vhttps
p99
ssV183.66.64.120:3128
p100
(dp101
g4
g5
sg6
I00
sg7
Vhttps
p102
ssV220.248.207.105:53281
p103
(dp104
g4
g5
sg6
I00
sg7
Vhttps
p105
ssV115.171.71.79:8118
p106
(dp107
g11
g12
sg13
I00
sg14
Vhttps
p108
ssV222.56.21.113:53281
p109
(dp110
g11
g12
sg13
I00
sg14
Vhttps
p111
ssV120.77.66.146:3128
p112
(dp113
g11
g12
sg13
I00
sg14
Vhttps
p114
ssV219.132.42.202:9797
p115
(dp116
g11
g12
sg13
I00
sg14
Vhttps
p117
ssV120.55.38.20:3128
p118
(dp119
g4
g5
sg6
I00
sg7
Vhttps
p120
ssV116.30.195.239:9797
p121
(dp122
g4
g5
sg6
I00
sg7
Vhttps
p123
ssV219.135.164.245:3128
p124
(dp125
g4
g5
sg6
I00
sg7
Vhttps
p126
ssV116.231.148.33:53281
p127
(dp128
g11
g12
sg13
I00
sg14
Vhttps
p129
ssV119.84.10.16:3128
p130
(dp131
g11
g12
sg13
I00
sg14
Vhttps
p132
ssV222.88.144.119:53281
p133
(dp134
g11
g12
sg13
I00
sg14
Vhttps
p135
ssV27.40.143.109:61234
p136
(dp137
g11
g12
sg13
I00
sg14
Vhttps
p138
ssV58.58.48.138:53281
p139
(dp140
g11
g12
sg13
I00
sg14
Vhttps
p141
ssV115.226.11.248:808
p142
(dp143
g11
g12
sg13
I00
sg14
Vhttps
p144
ssV117.92.160.197:9999
p145
(dp146
g11
g12
sg13
I00
sg14
Vhttps
p147
ssV163.125.73.184:9000
p148
(dp149
g11
g12
sg13
I00
sg14
Vhttps
p150
ssV118.190.176.148:3128
p151
(dp152
g4
g5
sg6
I00
sg7
Vhttps
p153
ssV122.72.32.82:80
p154
(dp155
S'status'
p156
S'ok'
p157
sS'used'
p158
I00
sS'type'
p159
Vhttps
p160
ssV202.96.142.2:3128
p161
(dp162
g4
g5
sg6
I00
sg7
Vhttps
p163
ssV219.141.41.219:80
p164
(dp165
g51
g52
sg53
I00
sg54
Vhttps
p166
ssV180.175.120.26:53281
p167
(dp168
g51
g52
sg53
I00
sg54
Vhttps
p169
ssV113.128.91.154:48888
p170
(dp171
g11
g12
sg13
I00
sg14
Vhttps
p172
ssV114.104.198.197:808
p173
(dp174
g11
g12
sg13
I00
sg14
Vhttps
p175
ssV123.152.36.215:4328
p176
(dp177
g4
g5
sg6
I00
sg7
Vhttps
p178
ssV183.18.164.158:3128
p179
(dp180
g51
g52
sg53
I00
sg54
Vhttps
p181
ssV116.23.136.20:9999
p182
(dp183
g11
g12
sg13
I00
sg14
Vhttps
p184
ssV113.128.90.144:48888
p185
(dp186
g51
g52
sg53
I00
sg54
Vhttps
p187
ssV223.240.47.74:8123
p188
(dp189
g4
g5
sg6
I00
sg7
Vhttps
p190
ssV121.12.42.140:61234
p191
(dp192
g4
g5
sg6
I00
sg7
Vhttps
p193
ssV222.223.60.219:8000
p194
(dp195
g11
g12
sg13
I00
sg14
Vhttps
p196
ssV219.137.65.8:9797
p197
(dp198
g11
g12
sg13
I00
sg14
Vhttps
p199
ssV120.78.15.63:80
p200
(dp201
g11
g12
sg13
I00
sg14
Vhttps
p202
ssV58.243.8.185:4392
p203
(dp204
g11
g12
sg13
I00
sg14
Vhttps
p205
ssV219.130.39.55:53281
p206
(dp207
g11
g12
sg13
I00
sg14
Vhttps
p208
ssV124.172.138.113:808
p209
(dp210
g156
g157
sg158
I00
sg159
Vhttps
p211
ssV59.56.46.119:808
p212
(dp213
g4
g5
sg6
I00
sg7
Vhttps
p214
ssV222.89.112.48:53281
p215
(dp216
g11
g12
sg13
I00
sg14
Vhttps
p217
ssV120.27.27.50:3128
p218
(dp219
g4
g5
sg6
I00
sg7
Vhttps
p220
ssV124.119.27.98:53281
p221
(dp222
g11
g12
sg13
I00
sg14
Vhttps
p223
ssV39.88.15.93:53281
p224
(dp225
g156
g157
sg158
I00
sg159
Vhttps
p226
ssV119.136.197.234:9797
p227
(dp228
g4
g5
sg6
I00
sg7
Vhttps
p229
ssV49.75.0.227:808
p230
(dp231
g11
g12
sg13
I00
sg14
Vhttps
p232
ssV121.32.89.106:808
p233
(dp234
g11
g12
sg13
I00
sg14
Vhttps
p235
ssV218.20.55.4:9797
p236
(dp237
g11
g12
sg13
I00
sg14
Vhttps
p238
ssV113.124.95.27:808
p239
(dp240
g4
g5
sg6
I00
sg7
Vhttps
p241
ssV111.194.51.125:9000
p242
(dp243
g11
g12
sg13
I00
sg14
Vhttps
p244
ssV119.90.248.245:9999
p245
(dp246
g4
g5
sg6
I00
sg7
Vhttps
p247
ssV221.233.62.43:808
p248
(dp249
g51
g52
sg53
I00
sg54
Vhttps
p250
ssV222.132.145.126:80
p251
(dp252
g156
g157
sg158
I00
sg159
Vhttps
p253
ssV221.4.133.67:53281
p254
(dp255
g11
g12
sg13
I00
sg14
Vhttps
p256
ssV101.94.3.179:8123
p257
(dp258
g11
g12
sg13
I00
sg14
Vhttps
p259
ssV113.128.91.212:48888
p260
(dp261
S'status'
p262
S'ok'
p263
sS'used'
p264
I00
sS'type'
p265
Vhttps
p266
ssV121.232.241.91:808
p267
(dp268
g51
g52
sg53
I00
sg54
Vhttps
p269
ssV49.88.219.124:808
p270
(dp271
g11
g12
sg13
I00
sg14
Vhttps
p272
ssV112.250.65.222:53281
p273
(dp274
g11
g12
sg13
I00
sg14
Vhttps
p275
ssV113.122.1.203:808
p276
(dp277
g4
g5
sg6
I00
sg7
Vhttps
p278
ssV118.81.69.210:9797
p279
(dp280
g4
g5
sg6
I00
sg7
Vhttps
p281
ssV116.236.151.166:8080
p282
(dp283
g11
g12
sg13
I00
sg14
Vhttps
p284
ssV118.31.103.7:3128
p285
(dp286
g4
g5
sg6
I00
sg7
Vhttps
p287
ssV113.116.124.100:9797
p288
(dp289
g11
g12
sg13
I00
sg14
Vhttps
p290
ssV125.93.148.46:9000
p291
(dp292
g51
g52
sg53
I00
sg54
Vhttps
p293
ssV118.81.70.221:9797
p294
(dp295
g4
g5
sg6
I00
sg7
Vhttps
p296
ssV139.224.24.26:8888
p297
(dp298
g51
g52
sg53
I00
sg54
Vhttps
p299
ss.